; Function Attrs: mustprogress nounwind uwtable
define hidden void @_ZN7datalog16rule_transformerD2Ev(ptr noundef nonnull align 8 captures(none) dereferenceable(32) %0) unnamed_addr #4 align 2 personality ptr @__gxx_personality_v0 {
  %2 = getelementptr inbounds nuw i8, ptr %0, i64 24
  %3 = load ptr, ptr %2, align 8, !tbaa !17
  %4 = icmp eq ptr %3, null
  br i1 %4, label %.thread, label %_ZN6vectorIPN7datalog16rule_transformer6pluginELb0EjE3endEv.exit.i

_ZN6vectorIPN7datalog16rule_transformer6pluginELb0EjE3endEv.exit.i: ; preds = %1
  %5 = getelementptr inbounds i8, ptr %3, i64 -4
  %6 = load i32, ptr %5, align 4, !tbaa !18
  %7 = zext i32 %6 to i64
  %8 = getelementptr inbounds nuw ptr, ptr %3, i64 %7
  %.not8.i = icmp eq i32 %6, 0
  br i1 %.not8.i, label %17, label %.lr.ph.i

._crit_edge.i:                                    ; preds = %_Z7deallocIN7datalog16rule_transformer6pluginEEvPT_.exit.i
  %.pre.i = load ptr, ptr %2, align 8, !tbaa !17
  %.not.i.i = icmp eq ptr %.pre.i, null
  br i1 %.not.i.i, label %.thread, label %.thread3

.thread3:                                         ; preds = %._crit_edge.i
  %9 = getelementptr inbounds i8, ptr %.pre.i, i64 -4
  store i32 0, ptr %9, align 4, !tbaa !18
  br label %17

.lr.ph.i:                                         ; preds = %_ZN6vectorIPN7datalog16rule_transformer6pluginELb0EjE3endEv.exit.i, %_Z7deallocIN7datalog16rule_transformer6pluginEEvPT_.exit.i
  %.09.i = phi ptr [ %15, %_Z7deallocIN7datalog16rule_transformer6pluginEEvPT_.exit.i ], [ %3, %_ZN6vectorIPN7datalog16rule_transformer6pluginELb0EjE3endEv.exit.i ]
  %10 = load ptr, ptr %.09.i, align 8, !tbaa !20
  %11 = icmp eq ptr %10, null
  br i1 %11, label %_Z7deallocIN7datalog16rule_transformer6pluginEEvPT_.exit.i, label %12

12:                                               ; preds = %.lr.ph.i
  %13 = load ptr, ptr %10, align 8, !tbaa !22
  %14 = load ptr, ptr %13, align 8
  tail call void %14(ptr noundef nonnull align 8 dereferenceable(24) %10) #20
  invoke void @_ZN6memory10deallocateEPv(ptr noundef nonnull %10)
          to label %_Z7deallocIN7datalog16rule_transformer6pluginEEvPT_.exit.i unwind label %23

_Z7deallocIN7datalog16rule_transformer6pluginEEvPT_.exit.i: ; preds = %12, %.lr.ph.i
  %15 = getelementptr inbounds nuw i8, ptr %.09.i, i64 8
  %.not.i = icmp eq ptr %15, %8
  br i1 %.not.i, label %._crit_edge.i, label %.lr.ph.i

.thread:                                          ; preds = %._crit_edge.i, %1
  %16 = getelementptr inbounds nuw i8, ptr %0, i64 16
  store i8 0, ptr %16, align 8, !tbaa !10
  br label %_ZN6vectorIPN7datalog16rule_transformer6pluginELb0EjED2Ev.exit

17:                                               ; preds = %_ZN6vectorIPN7datalog16rule_transformer6pluginELb0EjE3endEv.exit.i, %.thread3
  %.pr6 = phi ptr [ %.pre.i, %.thread3 ], [ %3, %_ZN6vectorIPN7datalog16rule_transformer6pluginELb0EjE3endEv.exit.i ]
  %18 = getelementptr inbounds nuw i8, ptr %0, i64 16
  store i8 0, ptr %18, align 8, !tbaa !10
  %19 = getelementptr inbounds i8, ptr %.pr6, i64 -8
  invoke void @_ZN6memory10deallocateEPv(ptr noundef nonnull %19)
          to label %_ZN6vectorIPN7datalog16rule_transformer6pluginELb0EjED2Ev.exit unwind label %20

20:                                               ; preds = %17
  %21 = landingpad { ptr, i32 }
          catch ptr null
  %22 = extractvalue { ptr, i32 } %21, 0
  tail call void @__clang_call_terminate(ptr %22) #21
  unreachable

_ZN6vectorIPN7datalog16rule_transformer6pluginELb0EjED2Ev.exit: ; preds = %.thread, %17
  ret void

23:                                               ; preds = %12
  %24 = landingpad { ptr, i32 }
          catch ptr null
  %25 = extractvalue { ptr, i32 } %24, 0
  tail call void @__clang_call_terminate(ptr %25) #21
  unreachable
}